; Function Attrs: nounwind uwtable
define internal range(i32 -1, 1) i32 @diff_opt_color_moved_ws(ptr noundef readonly captures(none) %0, ptr noundef %1, i32 noundef %2) #0 {
  %4 = getelementptr inbounds nuw i8, ptr %0, i64 16
  %5 = load ptr, ptr %4, align 8, !tbaa !215
  %.not = icmp eq i32 %2, 0
  br i1 %.not, label %8, label %6

6:                                                ; preds = %3
  %7 = getelementptr inbounds nuw i8, ptr %5, i64 564
  store i32 0, ptr %7, align 4, !tbaa !161
  br label %18

8:                                                ; preds = %3
  %9 = tail call fastcc i32 @parse_color_moved_ws(ptr noundef %1)
  %10 = and i32 %9, 1
  %.not8 = icmp eq i32 %10, 0
  br i1 %.not8, label %16, label %11

11:                                               ; preds = %8
  %12 = load i32, ptr @git_gettext_enabled, align 4, !tbaa !11
  %.not4.i = icmp eq i32 %12, 0
  br i1 %.not4.i, label %_.exit, label %13

13:                                               ; preds = %11
  %14 = tail call ptr @dcgettext(ptr noundef null, ptr noundef nonnull @.str.349, i32 noundef 5) #32
  br label %_.exit

_.exit:                                           ; preds = %11, %13
  %.0.i = phi ptr [ %14, %13 ], [ @.str.349, %11 ]
  %15 = tail call i32 (ptr, ...) @error(ptr noundef %.0.i, ptr noundef %1) #32
  br label %18

16:                                               ; preds = %8
  %17 = getelementptr inbounds nuw i8, ptr %5, i64 564
  store i32 %9, ptr %17, align 4, !tbaa !161
  br label %18

18:                                               ; preds = %16, %_.exit, %6
  %.0 = phi i32 [ 0, %6 ], [ -1, %_.exit ], [ 0, %16 ]
  ret i32 %.0
}